target datalayout = "e-m:e-p270:32:32-p271:32:32-p272:64:64-i64:64-i128:128-f80:128-n8:16:32:64-S128"
target triple = "x86_64-pc-linux-gnu"

%struct.PJconsts = type { ptr, ptr, ptr, ptr, ptr, ptr, ptr, ptr, ptr, ptr, ptr, ptr, i32, ptr, ptr, ptr, ptr, ptr, ptr, ptr, ptr, double, double, double, double, double, double, double, double, double, double, double, double, double, double, double, double, double, double, double, double, double, double, i32, i32, i32, i32, i32, i32, i32, i32, i32, i32, i32, ptr, ptr, ptr, ptr, ptr, ptr, double, double, double, double, double, double, double, double, double, double, double, i32, [7 x double], i32, ptr, ptr, double, double, i32, [4 x i8], %"class.std::shared_ptr", i8, double, i8, %"class.std::__cxx11::basic_string", %"class.std::__cxx11::basic_string", %"class.std::__cxx11::basic_string", i8, %"class.std::vector", i32, %"class.std::vector.3", i32, i8, i8, i8, ptr }
%"class.std::shared_ptr" = type { %"class.std::__shared_ptr" }
%"class.std::__shared_ptr" = type { ptr, %"class.std::__shared_count" }
%"class.std::__shared_count" = type { ptr }
%"class.std::__cxx11::basic_string" = type { %"struct.std::__cxx11::basic_string<char>::_Alloc_hider", i64, %union.anon }
%"struct.std::__cxx11::basic_string<char>::_Alloc_hider" = type { ptr }
%union.anon = type { i64, [8 x i8] }
%"class.std::vector" = type { %"struct.std::_Vector_base" }
%"struct.std::_Vector_base" = type { %"struct.std::_Vector_base<osgeo::proj::operation::GridDescription, std::allocator<osgeo::proj::operation::GridDescription>>::_Vector_impl" }
%"struct.std::_Vector_base<osgeo::proj::operation::GridDescription, std::allocator<osgeo::proj::operation::GridDescription>>::_Vector_impl" = type { %"struct.std::_Vector_base<osgeo::proj::operation::GridDescription, std::allocator<osgeo::proj::operation::GridDescription>>::_Vector_impl_data" }
%"struct.std::_Vector_base<osgeo::proj::operation::GridDescription, std::allocator<osgeo::proj::operation::GridDescription>>::_Vector_impl_data" = type { ptr, ptr, ptr }
%"class.std::vector.3" = type { %"struct.std::_Vector_base.4" }
%"struct.std::_Vector_base.4" = type { %"struct.std::_Vector_base<PJCoordOperation, std::allocator<PJCoordOperation>>::_Vector_impl" }
%"struct.std::_Vector_base<PJCoordOperation, std::allocator<PJCoordOperation>>::_Vector_impl" = type { %"struct.std::_Vector_base<PJCoordOperation, std::allocator<PJCoordOperation>>::_Vector_impl_data" }
%"struct.std::_Vector_base<PJCoordOperation, std::allocator<PJCoordOperation>>::_Vector_impl_data" = type { ptr, ptr, ptr }
%"struct.(anonymous namespace)::pj_gnom_data" = type { double, double, i32, %struct.geod_geodesic }
%struct.geod_geodesic = type { double, double, double, double, double, double, double, double, double, [6 x double], [15 x double], [21 x double] }
%struct.PJ_LP = type { double, double }
%struct.PJ_XY = type { double, double }
%struct.geod_geodesicline = type { double, double, double, double, double, double, double, double, double, double, double, double, double, double, double, double, double, double, double, double, double, double, double, double, double, double, double, double, double, double, [7 x double], [7 x double], [7 x double], [6 x double], [6 x double], i32 }

@_ZZL14gnom_e_inverse5PJ_XYP8PJconstsE4eps_ = internal global double 0.000000e+00, align 8
@_ZGVZL14gnom_e_inverse5PJ_XYP8PJconstsE4eps_ = internal global i64 0, align 8

; Function Attrs: mustprogress uwtable
define internal { double, double } @_ZL14gnom_e_inverse5PJ_XYP8PJconsts(double %0, double %1, ptr noundef %2) #0 {
  %4 = alloca %struct.PJ_LP, align 8
  %5 = alloca %struct.PJ_XY, align 8
  %6 = alloca ptr, align 8
  %7 = alloca i32, align 4
  %8 = alloca ptr, align 8
  %9 = alloca double, align 8
  %10 = alloca double, align 8
  %11 = alloca double, align 8
  %12 = alloca double, align 8
  %13 = alloca double, align 8
  %14 = alloca i8, align 1
  %15 = alloca %struct.geod_geodesicline, align 8
  %16 = alloca i32, align 4
  %17 = alloca i32, align 4
  %18 = alloca double, align 8
  %19 = alloca double, align 8
  %20 = alloca double, align 8
  %21 = alloca double, align 8
  %22 = alloca i32, align 4
  %23 = alloca double, align 8
  %24 = getelementptr inbounds nuw { double, double }, ptr %5, i32 0, i32 0
  store double %0, ptr %24, align 8
  %25 = getelementptr inbounds nuw { double, double }, ptr %5, i32 0, i32 1
  store double %1, ptr %25, align 8
  store ptr %2, ptr %6, align 8, !tbaa !3
  call void @llvm.lifetime.start.p0(i64 4, ptr %7) #8
  store i32 10, ptr %7, align 4, !tbaa !50
  %26 = load atomic i8, ptr @_ZGVZL14gnom_e_inverse5PJ_XYP8PJconstsE4eps_ acquire, align 8
  %27 = icmp eq i8 %26, 0
  br i1 %27, label %28, label %35, !prof !63

28:                                               ; preds = %3
  %29 = call i32 @__cxa_guard_acquire(ptr @_ZGVZL14gnom_e_inverse5PJ_XYP8PJconstsE4eps_) #8
  %30 = icmp ne i32 %29, 0
  br i1 %30, label %31, label %35

31:                                               ; preds = %28
  %32 = call double @sqrt(double noundef 0x3CB0000000000000) #8, !tbaa !50
  %33 = fmul double 1.000000e-02, %32
  store double %33, ptr @_ZZL14gnom_e_inverse5PJ_XYP8PJconstsE4eps_, align 8, !tbaa !59
  %34 = call ptr @llvm.invariant.start.p0(i64 8, ptr @_ZZL14gnom_e_inverse5PJ_XYP8PJconstsE4eps_)
  call void @__cxa_guard_release(ptr @_ZGVZL14gnom_e_inverse5PJ_XYP8PJconstsE4eps_) #8
  br label %35

35:                                               ; preds = %31, %28, %3
  call void @llvm.memset.p0.i64(ptr align 8 %4, i8 0, i64 16, i1 false)
  call void @llvm.lifetime.start.p0(i64 8, ptr %8) #8
  %36 = load ptr, ptr %6, align 8, !tbaa !3
  %37 = getelementptr inbounds nuw %struct.PJconsts, ptr %36, i32 0, i32 11
  %38 = load ptr, ptr %37, align 8, !tbaa !43
  store ptr %38, ptr %8, align 8, !tbaa !41
  call void @llvm.lifetime.start.p0(i64 8, ptr %9) #8
  %39 = load ptr, ptr %6, align 8, !tbaa !3
  %40 = getelementptr inbounds nuw %struct.PJconsts, ptr %39, i32 0, i32 61
  %41 = load double, ptr %40, align 8, !tbaa !45
  %42 = fdiv double %41, 0x3F91DF46A2529D39
  store double %42, ptr %9, align 8, !tbaa !59
  call void @llvm.lifetime.start.p0(i64 8, ptr %10) #8
  store double 0.000000e+00, ptr %10, align 8, !tbaa !59
  call void @llvm.lifetime.start.p0(i64 8, ptr %11) #8
  %43 = getelementptr inbounds nuw %struct.PJ_XY, ptr %5, i32 0, i32 0
  %44 = load double, ptr %43, align 8, !tbaa !56
  %45 = getelementptr inbounds nuw %struct.PJ_XY, ptr %5, i32 0, i32 1
  %46 = load double, ptr %45, align 8, !tbaa !58
  %47 = call double @atan2(double noundef %44, double noundef %46) #8, !tbaa !50
  %48 = fdiv double %47, 0x3F91DF46A2529D39
  store double %48, ptr %11, align 8, !tbaa !59
  call void @llvm.lifetime.start.p0(i64 8, ptr %12) #8
  %49 = getelementptr inbounds nuw %struct.PJ_XY, ptr %5, i32 0, i32 0
  %50 = load double, ptr %49, align 8, !tbaa !56
  %51 = getelementptr inbounds nuw %struct.PJ_XY, ptr %5, i32 0, i32 1
  %52 = load double, ptr %51, align 8, !tbaa !58
  %53 = call double @hypot(double noundef %50, double noundef %52) #8, !tbaa !50
  store double %53, ptr %12, align 8, !tbaa !59
  call void @llvm.lifetime.start.p0(i64 8, ptr %13) #8
  %54 = load double, ptr %12, align 8, !tbaa !59
  %55 = call double @atan(double noundef %54) #8, !tbaa !50
  store double %55, ptr %13, align 8, !tbaa !59
  call void @llvm.lifetime.start.p0(i64 1, ptr %14) #8
  %56 = load double, ptr %12, align 8, !tbaa !59
  %57 = fcmp ole double %56, 1.000000e+00
  %58 = zext i1 %57 to i8
  store i8 %58, ptr %14, align 1, !tbaa !64
  %59 = load i8, ptr %14, align 1, !tbaa !64, !range !65, !noundef !66
  %60 = trunc i8 %59 to i1
  br i1 %60, label %64, label %61

61:                                               ; preds = %35
  %62 = load double, ptr %12, align 8, !tbaa !59
  %63 = fdiv double 1.000000e+00, %62
  store double %63, ptr %12, align 8, !tbaa !59
  br label %64

64:                                               ; preds = %61, %35
  call void @llvm.lifetime.start.p0(i64 512, ptr %15) #8
  %65 = load ptr, ptr %8, align 8, !tbaa !41
  %66 = getelementptr inbounds nuw %"struct.(anonymous namespace)::pj_gnom_data", ptr %65, i32 0, i32 3
  %67 = load double, ptr %9, align 8, !tbaa !59
  %68 = load double, ptr %10, align 8, !tbaa !59
  %69 = load double, ptr %11, align 8, !tbaa !59
  call void @geod_lineinit(ptr noundef %15, ptr noundef %66, double noundef %67, double noundef %68, double noundef %69, i32 noundef 14735)
  call void @llvm.lifetime.start.p0(i64 4, ptr %16) #8
  store i32 10, ptr %16, align 4, !tbaa !50
  call void @llvm.lifetime.start.p0(i64 4, ptr %17) #8
  store i32 0, ptr %17, align 4, !tbaa !50
  call void @llvm.lifetime.start.p0(i64 8, ptr %18) #8
  store double 0.000000e+00, ptr %18, align 8, !tbaa !59
  call void @llvm.lifetime.start.p0(i64 8, ptr %19) #8
  store double 0.000000e+00, ptr %19, align 8, !tbaa !59
  br label %70

70:                                               ; preds = %114, %64
  %71 = load i32, ptr %16, align 4, !tbaa !50
  %72 = add nsw i32 %71, -1
  store i32 %72, ptr %16, align 4, !tbaa !50
  %73 = icmp ne i32 %71, 0
  br i1 %73, label %74, label %115

74:                                               ; preds = %70
  call void @llvm.lifetime.start.p0(i64 8, ptr %20) #8
  call void @llvm.lifetime.start.p0(i64 8, ptr %21) #8
  %75 = load double, ptr %13, align 8, !tbaa !59
  %76 = call double @geod_genposition(ptr noundef %15, i32 noundef 0, double noundef %75, ptr noundef %18, ptr noundef %19, ptr noundef null, ptr noundef %13, ptr noundef %20, ptr noundef %21, ptr noundef null, ptr noundef null)
  %77 = load i32, ptr %17, align 4, !tbaa !50
  %78 = icmp ne i32 %77, 0
  br i1 %78, label %79, label %80

79:                                               ; preds = %74
  store i32 3, ptr %22, align 4
  br label %112

80:                                               ; preds = %74
  call void @llvm.lifetime.start.p0(i64 8, ptr %23) #8
  %81 = load i8, ptr %14, align 1, !tbaa !64, !range !65, !noundef !66
  %82 = trunc i8 %81 to i1
  br i1 %82, label %83, label %91

83:                                               ; preds = %80
  %84 = load double, ptr %20, align 8, !tbaa !59
  %85 = load double, ptr %12, align 8, !tbaa !59
  %86 = load double, ptr %21, align 8, !tbaa !59
  %87 = fneg double %85
  %88 = call double @llvm.fmuladd.f64(double %87, double %86, double %84)
  %89 = load double, ptr %21, align 8, !tbaa !59
  %90 = fmul double %88, %89
  br label %99

91:                                               ; preds = %80
  %92 = load double, ptr %12, align 8, !tbaa !59
  %93 = load double, ptr %20, align 8, !tbaa !59
  %94 = load double, ptr %21, align 8, !tbaa !59
  %95 = fneg double %94
  %96 = call double @llvm.fmuladd.f64(double %92, double %93, double %95)
  %97 = load double, ptr %20, align 8, !tbaa !59
  %98 = fmul double %96, %97
  br label %99

99:                                               ; preds = %91, %83
  %100 = phi double [ %90, %83 ], [ %98, %91 ]
  store double %100, ptr %23, align 8, !tbaa !59
  %101 = load double, ptr %23, align 8, !tbaa !59
  %102 = load double, ptr %13, align 8, !tbaa !59
  %103 = fsub double %102, %101
  store double %103, ptr %13, align 8, !tbaa !59
  %104 = load double, ptr %23, align 8, !tbaa !59
  %105 = call double @llvm.fabs.f64(double %104)
  %106 = load double, ptr @_ZZL14gnom_e_inverse5PJ_XYP8PJconstsE4eps_, align 8, !tbaa !59
  %107 = fcmp oge double %105, %106
  br i1 %107, label %111, label %108

108:                                              ; preds = %99
  %109 = load i32, ptr %17, align 4, !tbaa !50
  %110 = add nsw i32 %109, 1
  store i32 %110, ptr %17, align 4, !tbaa !50
  br label %111

111:                                              ; preds = %108, %99
  call void @llvm.lifetime.end.p0(i64 8, ptr %23) #8
  store i32 0, ptr %22, align 4
  br label %112

112:                                              ; preds = %111, %79
  call void @llvm.lifetime.end.p0(i64 8, ptr %21) #8
  call void @llvm.lifetime.end.p0(i64 8, ptr %20) #8
  %113 = load i32, ptr %22, align 4
  switch i32 %113, label %132 [
    i32 0, label %114
    i32 3, label %115
  ]

114:                                              ; preds = %112
  br label %70, !llvm.loop !67

115:                                              ; preds = %112, %70
  %116 = load i32, ptr %17, align 4, !tbaa !50
  %117 = icmp ne i32 %116, 0
  br i1 %117, label %118, label %125

118:                                              ; preds = %115
  %119 = load double, ptr %18, align 8, !tbaa !59
  %120 = fmul double %119, 0x3F91DF46A2529D39
  %121 = getelementptr inbounds nuw %struct.PJ_LP, ptr %4, i32 0, i32 1
  store double %120, ptr %121, align 8, !tbaa !60
  %122 = load double, ptr %19, align 8, !tbaa !59
  %123 = fmul double %122, 0x3F91DF46A2529D39
  %124 = getelementptr inbounds nuw %struct.PJ_LP, ptr %4, i32 0, i32 0
  store double %123, ptr %124, align 8, !tbaa !62
  br label %130

125:                                              ; preds = %115
  %126 = load ptr, ptr %6, align 8, !tbaa !3
  %127 = call i32 @proj_errno_set(ptr noundef %126, i32 noundef 2050)
  %128 = getelementptr inbounds nuw %struct.PJ_LP, ptr %4, i32 0, i32 0
  store double 0x7FF0000000000000, ptr %128, align 8, !tbaa !62
  %129 = getelementptr inbounds nuw %struct.PJ_LP, ptr %4, i32 0, i32 1
  store double 0x7FF0000000000000, ptr %129, align 8, !tbaa !60
  br label %130

130:                                              ; preds = %125, %118
  store i32 1, ptr %22, align 4
  call void @llvm.lifetime.end.p0(i64 8, ptr %19) #8
  call void @llvm.lifetime.end.p0(i64 8, ptr %18) #8
  call void @llvm.lifetime.end.p0(i64 4, ptr %17) #8
  call void @llvm.lifetime.end.p0(i64 4, ptr %16) #8
  call void @llvm.lifetime.end.p0(i64 512, ptr %15) #8
  call void @llvm.lifetime.end.p0(i64 1, ptr %14) #8
  call void @llvm.lifetime.end.p0(i64 8, ptr %13) #8
  call void @llvm.lifetime.end.p0(i64 8, ptr %12) #8
  call void @llvm.lifetime.end.p0(i64 8, ptr %11) #8
  call void @llvm.lifetime.end.p0(i64 8, ptr %10) #8
  call void @llvm.lifetime.end.p0(i64 8, ptr %9) #8
  call void @llvm.lifetime.end.p0(i64 8, ptr %8) #8
  call void @llvm.lifetime.end.p0(i64 4, ptr %7) #8
  %131 = load { double, double }, ptr %4, align 8
  ret { double, double } %131

132:                                              ; preds = %112
  unreachable
}