; Function Attrs: mustprogress uwtable
define internal { double, double } @_ZL14gnom_e_inverse5PJ_XYP8PJconsts(double %0, double %1, ptr noundef %2) #0 {
  %4 = alloca double, align 8
  %5 = alloca %struct.geod_geodesicline, align 8
  %6 = alloca double, align 8
  %7 = alloca double, align 8
  %8 = alloca double, align 8
  %9 = alloca double, align 8
  %10 = load atomic i8, ptr @_ZGVZL14gnom_e_inverse5PJ_XYP8PJconstsE4eps_ acquire, align 8
  %11 = icmp eq i8 %10, 0
  br i1 %11, label %12, label %16, !prof !53

12:                                               ; preds = %3
  %13 = tail call i32 @__cxa_guard_acquire(ptr nonnull @_ZGVZL14gnom_e_inverse5PJ_XYP8PJconstsE4eps_) #9
  %.not = icmp eq i32 %13, 0
  br i1 %.not, label %16, label %14

14:                                               ; preds = %12
  store double 0x3DE47AE147AE147B, ptr @_ZZL14gnom_e_inverse5PJ_XYP8PJconstsE4eps_, align 8, !tbaa !54
  %15 = tail call ptr @llvm.invariant.start.p0(i64 8, ptr nonnull @_ZZL14gnom_e_inverse5PJ_XYP8PJconstsE4eps_)
  tail call void @__cxa_guard_release(ptr nonnull @_ZGVZL14gnom_e_inverse5PJ_XYP8PJconstsE4eps_) #9
  br label %16

16:                                               ; preds = %14, %12, %3
  %17 = getelementptr inbounds nuw i8, ptr %2, i64 88
  %18 = load ptr, ptr %17, align 8, !tbaa !3
  %19 = getelementptr inbounds nuw i8, ptr %2, i64 448
  %20 = load double, ptr %19, align 8, !tbaa !37
  %21 = fdiv double %20, 0x3F91DF46A2529D39
  %22 = tail call double @atan2(double noundef %0, double noundef %1) #9, !tbaa !42
  %23 = fdiv double %22, 0x3F91DF46A2529D39
  %24 = tail call double @hypot(double noundef %0, double noundef %1) #9, !tbaa !42
  call void @llvm.lifetime.start.p0(i64 8, ptr nonnull %4) #9
  %25 = tail call double @atan(double noundef %24) #9, !tbaa !42
  store double %25, ptr %4, align 8, !tbaa !54
  %26 = fcmp ugt double %24, 1.000000e+00
  %27 = fdiv double 1.000000e+00, %24
  call void @llvm.lifetime.start.p0(i64 512, ptr nonnull %5) #9
  %28 = getelementptr inbounds nuw i8, ptr %18, i64 24
  call void @geod_lineinit(ptr noundef nonnull %5, ptr noundef nonnull %28, double noundef %21, double noundef 0.000000e+00, double noundef %23, i32 noundef 14735)
  call void @llvm.lifetime.start.p0(i64 8, ptr nonnull %6) #9
  store double 0.000000e+00, ptr %6, align 8, !tbaa !54
  call void @llvm.lifetime.start.p0(i64 8, ptr nonnull %7) #9
  store double 0.000000e+00, ptr %7, align 8, !tbaa !54
  %29 = fneg double %24
  br i1 %26, label %.split.us, label %.split

.split.us:                                        ; preds = %16, %33
  %30 = phi double [ %40, %33 ], [ %25, %16 ]
  %31 = phi i32 [ %44, %33 ], [ 9, %16 ]
  %.02338.us = phi i1 [ %43, %33 ], [ true, %16 ]
  call void @llvm.lifetime.start.p0(i64 8, ptr nonnull %8) #9
  call void @llvm.lifetime.start.p0(i64 8, ptr nonnull %9) #9
  %32 = call double @geod_genposition(ptr noundef nonnull %5, i32 noundef 0, double noundef %30, ptr noundef nonnull %6, ptr noundef nonnull %7, ptr noundef null, ptr noundef nonnull %4, ptr noundef nonnull %8, ptr noundef nonnull %9, ptr noundef null, ptr noundef null)
  br i1 %.02338.us, label %33, label %.thread34

33:                                               ; preds = %.split.us
  %34 = load double, ptr %8, align 8, !tbaa !54
  %35 = load double, ptr %9, align 8, !tbaa !54
  %36 = fneg double %35
  %37 = call double @llvm.fmuladd.f64(double %27, double %34, double %36)
  %38 = fmul double %34, %37
  %39 = load double, ptr %4, align 8, !tbaa !54
  %40 = fsub double %39, %38
  store double %40, ptr %4, align 8, !tbaa !54
  %41 = call double @llvm.fabs.f64(double %38)
  %42 = load double, ptr @_ZZL14gnom_e_inverse5PJ_XYP8PJconstsE4eps_, align 8, !tbaa !54
  %43 = fcmp oge double %41, %42
  call void @llvm.lifetime.end.p0(i64 8, ptr nonnull %9) #9
  call void @llvm.lifetime.end.p0(i64 8, ptr nonnull %8) #9
  %44 = add nsw i32 %31, -1
  %.not28.us = icmp eq i32 %31, 0
  br i1 %.not28.us, label %.split40.us, label %.split.us

.split:                                           ; preds = %16, %48
  %45 = phi double [ %54, %48 ], [ %25, %16 ]
  %46 = phi i32 [ %58, %48 ], [ 9, %16 ]
  %.02338 = phi i1 [ %57, %48 ], [ true, %16 ]
  call void @llvm.lifetime.start.p0(i64 8, ptr nonnull %8) #9
  call void @llvm.lifetime.start.p0(i64 8, ptr nonnull %9) #9
  %47 = call double @geod_genposition(ptr noundef nonnull %5, i32 noundef 0, double noundef %45, ptr noundef nonnull %6, ptr noundef nonnull %7, ptr noundef null, ptr noundef nonnull %4, ptr noundef nonnull %8, ptr noundef nonnull %9, ptr noundef null, ptr noundef null)
  br i1 %.02338, label %48, label %.thread34

.thread34:                                        ; preds = %.split, %.split.us
  call void @llvm.lifetime.end.p0(i64 8, ptr nonnull %9) #9
  call void @llvm.lifetime.end.p0(i64 8, ptr nonnull %8) #9
  br label %59

48:                                               ; preds = %.split
  %49 = load double, ptr %8, align 8, !tbaa !54
  %50 = load double, ptr %9, align 8, !tbaa !54
  %51 = call double @llvm.fmuladd.f64(double %29, double %50, double %49)
  %52 = fmul double %50, %51
  %53 = load double, ptr %4, align 8, !tbaa !54
  %54 = fsub double %53, %52
  store double %54, ptr %4, align 8, !tbaa !54
  %55 = call double @llvm.fabs.f64(double %52)
  %56 = load double, ptr @_ZZL14gnom_e_inverse5PJ_XYP8PJconstsE4eps_, align 8, !tbaa !54
  %57 = fcmp oge double %55, %56
  call void @llvm.lifetime.end.p0(i64 8, ptr nonnull %9) #9
  call void @llvm.lifetime.end.p0(i64 8, ptr nonnull %8) #9
  %58 = add nsw i32 %46, -1
  %.not28 = icmp eq i32 %46, 0
  br i1 %.not28, label %.split40.us, label %.split

.split40.us:                                      ; preds = %48, %33
  %.us-phi = phi i1 [ %43, %33 ], [ %57, %48 ]
  br i1 %.us-phi, label %64, label %59

59:                                               ; preds = %.thread34, %.split40.us
  %60 = load double, ptr %6, align 8, !tbaa !54
  %61 = fmul double %60, 0x3F91DF46A2529D39
  %62 = load double, ptr %7, align 8, !tbaa !54
  %63 = fmul double %62, 0x3F91DF46A2529D39
  br label %66

64:                                               ; preds = %.split40.us
  %65 = call i32 @proj_errno_set(ptr noundef %2, i32 noundef 2050)
  br label %66

66:                                               ; preds = %64, %59
  %.sroa.4.0 = phi double [ %61, %59 ], [ 0x7FF0000000000000, %64 ]
  %.sroa.022.0 = phi double [ %63, %59 ], [ 0x7FF0000000000000, %64 ]
  call void @llvm.lifetime.end.p0(i64 8, ptr nonnull %7) #9
  call void @llvm.lifetime.end.p0(i64 8, ptr nonnull %6) #9
  call void @llvm.lifetime.end.p0(i64 512, ptr nonnull %5) #9
  call void @llvm.lifetime.end.p0(i64 8, ptr nonnull %4) #9
  %.fca.0.insert = insertvalue { double, double } poison, double %.sroa.022.0, 0
  %.fca.1.insert = insertvalue { double, double } %.fca.0.insert, double %.sroa.4.0, 1
  ret { double, double } %.fca.1.insert
}